target datalayout = "e-m:e-p270:32:32-p271:32:32-p272:64:64-i64:64-i128:128-f80:128-n8:16:32:64-S128"
target triple = "x86_64-pc-linux-gnu"

@hf_gryphon_event_id = internal global i32 0, align 4
@hf_gryphon_event_name = internal global i32 0, align 4
@ett_gryphon_cmd_events_data = internal global i32 0, align 4
@.str.1105 = private unnamed_addr constant [10 x i8] c"Event %d:\00", align 1

; Function Attrs: null_pointer_is_valid sspstrong uwtable
define internal i32 @resp_events(ptr noundef %0, i32 noundef %1, ptr noundef %2) #0 {
  %4 = alloca ptr, align 8
  %5 = alloca i32, align 4
  %6 = alloca ptr, align 8
  %7 = alloca i32, align 4
  %8 = alloca i32, align 4
  %9 = alloca ptr, align 8
  store ptr %0, ptr %4, align 8
  store i32 %1, ptr %5, align 4
  store ptr %2, ptr %6, align 8
  call void @llvm.lifetime.start.p0(i64 4, ptr %7) #7
  call void @llvm.lifetime.start.p0(i64 4, ptr %8) #7
  call void @llvm.lifetime.start.p0(i64 8, ptr %9) #7
  %10 = load ptr, ptr %4, align 8
  %11 = load i32, ptr %5, align 4
  %12 = call i32 @tvb_reported_length_remaining(ptr noundef %10, i32 noundef %11)
  store i32 %12, ptr %7, align 4
  store i32 1, ptr %8, align 4
  br label %13

13:                                               ; preds = %16, %3
  %14 = load i32, ptr %7, align 4
  %15 = icmp ne i32 %14, 0
  br i1 %15, label %16, label %40

16:                                               ; preds = %13
  %17 = load ptr, ptr %6, align 8
  %18 = load ptr, ptr %4, align 8
  %19 = load i32, ptr %5, align 4
  %20 = load i32, ptr @ett_gryphon_cmd_events_data, align 4
  %21 = load i32, ptr %8, align 4
  %22 = call ptr (ptr, ptr, i32, i32, i32, ptr, ptr, ...) @proto_tree_add_subtree_format(ptr noundef %17, ptr noundef %18, i32 noundef %19, i32 noundef 20, i32 noundef %20, ptr noundef null, ptr noundef @.str.1105, i32 noundef %21)
  store ptr %22, ptr %9, align 8
  %23 = load ptr, ptr %9, align 8
  %24 = load i32, ptr @hf_gryphon_event_id, align 4
  %25 = load ptr, ptr %4, align 8
  %26 = load i32, ptr %5, align 4
  %27 = call ptr @proto_tree_add_item(ptr noundef %23, i32 noundef %24, ptr noundef %25, i32 noundef %26, i32 noundef 1, i32 noundef 0)
  %28 = load ptr, ptr %9, align 8
  %29 = load i32, ptr @hf_gryphon_event_name, align 4
  %30 = load ptr, ptr %4, align 8
  %31 = load i32, ptr %5, align 4
  %32 = add i32 %31, 1
  %33 = call ptr @proto_tree_add_item(ptr noundef %28, i32 noundef %29, ptr noundef %30, i32 noundef %32, i32 noundef 19, i32 noundef 0)
  %34 = load i32, ptr %5, align 4
  %35 = add i32 %34, 20
  store i32 %35, ptr %5, align 4
  %36 = load i32, ptr %7, align 4
  %37 = sub i32 %36, 20
  store i32 %37, ptr %7, align 4
  %38 = load i32, ptr %8, align 4
  %39 = add i32 %38, 1
  store i32 %39, ptr %8, align 4
  br label %13, !llvm.loop !30

40:                                               ; preds = %13
  %41 = load i32, ptr %5, align 4
  call void @llvm.lifetime.end.p0(i64 8, ptr %9) #7
  call void @llvm.lifetime.end.p0(i64 4, ptr %8) #7
  call void @llvm.lifetime.end.p0(i64 4, ptr %7) #7
  ret i32 %41
}