; Function Attrs: null_pointer_is_valid sspstrong uwtable
define internal fastcc noundef i32 @resp_events(ptr noundef %0, ptr noundef %1) unnamed_addr #0 {
  %3 = tail call i32 @tvb_reported_length_remaining(ptr noundef %0, i32 noundef 16)
  %.not18 = icmp eq i32 %3, 0
  br i1 %.not18, label %._crit_edge, label %.lr.ph

.lr.ph:                                           ; preds = %2, %.lr.ph
  %.021 = phi i32 [ %11, %.lr.ph ], [ 16, %2 ]
  %.01620 = phi i32 [ %13, %.lr.ph ], [ 1, %2 ]
  %.01719 = phi i32 [ %12, %.lr.ph ], [ %3, %2 ]
  %4 = load i32, ptr @ett_gryphon_cmd_events_data, align 4
  %5 = tail call ptr (ptr, ptr, i32, i32, i32, ptr, ptr, ...) @proto_tree_add_subtree_format(ptr noundef %1, ptr noundef %0, i32 noundef %.021, i32 noundef 20, i32 noundef %4, ptr noundef null, ptr noundef nonnull @.str.1105, i32 noundef %.01620)
  %6 = load i32, ptr @hf_gryphon_event_id, align 4
  %7 = tail call ptr @proto_tree_add_item(ptr noundef %5, i32 noundef %6, ptr noundef %0, i32 noundef %.021, i32 noundef 1, i32 noundef 0)
  %8 = load i32, ptr @hf_gryphon_event_name, align 4
  %9 = or disjoint i32 %.021, 1
  %10 = tail call ptr @proto_tree_add_item(ptr noundef %5, i32 noundef %8, ptr noundef %0, i32 noundef %9, i32 noundef 19, i32 noundef 0)
  %11 = add i32 %.021, 20
  %12 = add i32 %.01719, -20
  %13 = add i32 %.01620, 1
  %.not = icmp eq i32 %12, 0
  br i1 %.not, label %._crit_edge, label %.lr.ph, !llvm.loop !30

._crit_edge:                                      ; preds = %.lr.ph, %2
  %.0.lcssa = phi i32 [ 16, %2 ], [ %11, %.lr.ph ]
  ret i32 %.0.lcssa
}